target datalayout = "e-m:e-p270:32:32-p271:32:32-p272:64:64-i64:64-i128:128-f80:128-n8:16:32:64-S128"
target triple = "x86_64-pc-linux-gnu"

%"class.draco::SequentialAttributeDecoder" = type { ptr, ptr, ptr, i32, %"class.std::unique_ptr" }
%"class.std::unique_ptr" = type { %"struct.std::__uniq_ptr_data" }
%"struct.std::__uniq_ptr_data" = type { %"class.std::__uniq_ptr_impl" }
%"class.std::__uniq_ptr_impl" = type { %"class.std::tuple" }
%"class.std::tuple" = type { %"struct.std::_Tuple_impl" }
%"struct.std::_Tuple_impl" = type { %"struct.std::_Head_base.1" }
%"struct.std::_Head_base.1" = type { ptr }
%"class.draco::GeometryAttribute" = type { ptr, %"struct.draco::DataBufferDescriptor", i8, i32, i8, i64, i64, i32, i32 }
%"struct.draco::DataBufferDescriptor" = type { i64, i64 }
%"struct.std::_Vector_base.42" = type { %"struct.std::_Vector_base<draco::IndexType<unsigned int, draco::PointIndex_tag_type_>, std::allocator<draco::IndexType<unsigned int, draco::PointIndex_tag_type_>>>::_Vector_impl" }
%"struct.std::_Vector_base<draco::IndexType<unsigned int, draco::PointIndex_tag_type_>, std::allocator<draco::IndexType<unsigned int, draco::PointIndex_tag_type_>>>::_Vector_impl" = type { %"struct.std::_Vector_base<draco::IndexType<unsigned int, draco::PointIndex_tag_type_>, std::allocator<draco::IndexType<unsigned int, draco::PointIndex_tag_type_>>>::_Vector_impl_data" }
%"struct.std::_Vector_base<draco::IndexType<unsigned int, draco::PointIndex_tag_type_>, std::allocator<draco::IndexType<unsigned int, draco::PointIndex_tag_type_>>>::_Vector_impl_data" = type { ptr, ptr, ptr }

; Function Attrs: mustprogress nounwind uwtable
define linkonce_odr noundef i64 @_ZNKSt6vectorIN5draco9IndexTypeIjNS0_20PointIndex_tag_type_EEESaIS3_EE4sizeEv(ptr noundef nonnull align 8 dereferenceable(24) %0) #4 comdat align 2 {
  %2 = alloca ptr, align 8
  store ptr %0, ptr %2, align 8, !tbaa !44
  %3 = load ptr, ptr %2, align 8
  %4 = getelementptr inbounds nuw %"struct.std::_Vector_base.42", ptr %3, i32 0, i32 0
  %5 = getelementptr inbounds nuw %"struct.std::_Vector_base<draco::IndexType<unsigned int, draco::PointIndex_tag_type_>, std::allocator<draco::IndexType<unsigned int, draco::PointIndex_tag_type_>>>::_Vector_impl_data", ptr %4, i32 0, i32 1
  %6 = load ptr, ptr %5, align 8, !tbaa !57
  %7 = getelementptr inbounds nuw %"struct.std::_Vector_base.42", ptr %3, i32 0, i32 0
  %8 = getelementptr inbounds nuw %"struct.std::_Vector_base<draco::IndexType<unsigned int, draco::PointIndex_tag_type_>, std::allocator<draco::IndexType<unsigned int, draco::PointIndex_tag_type_>>>::_Vector_impl_data", ptr %7, i32 0, i32 0
  %9 = load ptr, ptr %8, align 8, !tbaa !60
  %10 = ptrtoint ptr %6 to i64
  %11 = ptrtoint ptr %9 to i64
  %12 = sub i64 %10, %11
  %13 = sdiv exact i64 %12, 4
  ret i64 %13
}

; Function Attrs: mustprogress nounwind uwtable
define linkonce_odr noundef zeroext i8 @_ZNK5draco17GeometryAttribute14num_componentsEv(ptr noundef nonnull align 8 dereferenceable(64) %0) #4 comdat align 2 {
  %2 = alloca ptr, align 8
  store ptr %0, ptr %2, align 8, !tbaa !47
  %3 = load ptr, ptr %2, align 8
  %4 = getelementptr inbounds nuw %"class.draco::GeometryAttribute", ptr %3, i32 0, i32 2
  %5 = load i8, ptr %4, align 8, !tbaa !49
  ret i8 %5
}

; Function Attrs: mustprogress uwtable
define noundef zeroext i1 @_ZN5draco26SequentialAttributeDecoder23DecodePortableAttributeERKSt6vectorINS_9IndexTypeIjNS_20PointIndex_tag_type_EEESaIS4_EEPNS_13DecoderBufferE(ptr noundef nonnull align 8 dereferenceable(40) %0, ptr noundef nonnull align 8 dereferenceable(24) %1, ptr noundef %2) unnamed_addr #5 align 2 {
  %4 = alloca i1, align 1
  %5 = alloca ptr, align 8
  %6 = alloca ptr, align 8
  %7 = alloca ptr, align 8
  store ptr %0, ptr %5, align 8, !tbaa !3
  store ptr %1, ptr %6, align 8, !tbaa !44
  store ptr %2, ptr %7, align 8, !tbaa !46
  %8 = load ptr, ptr %5, align 8
  %9 = getelementptr inbounds nuw %"class.draco::SequentialAttributeDecoder", ptr %8, i32 0, i32 2
  %10 = load ptr, ptr %9, align 8, !tbaa !21
  %11 = call noundef zeroext i8 @_ZNK5draco17GeometryAttribute14num_componentsEv(ptr noundef nonnull align 8 dereferenceable(64) %10)
  %12 = zext i8 %11 to i32
  %13 = icmp sle i32 %12, 0
  br i1 %13, label %20, label %14

14:                                               ; preds = %3
  %15 = getelementptr inbounds nuw %"class.draco::SequentialAttributeDecoder", ptr %8, i32 0, i32 2
  %16 = load ptr, ptr %15, align 8, !tbaa !21
  %17 = load ptr, ptr %6, align 8, !tbaa !44
  %18 = call noundef i64 @_ZNKSt6vectorIN5draco9IndexTypeIjNS0_20PointIndex_tag_type_EEESaIS3_EE4sizeEv(ptr noundef nonnull align 8 dereferenceable(24) %17) #3
  %19 = call noundef zeroext i1 @_ZN5draco14PointAttribute5ResetEm(ptr noundef nonnull align 8 dereferenceable(112) %16, i64 noundef %18)
  br i1 %19, label %21, label %20

20:                                               ; preds = %14, %3
  store i1 false, ptr %4, align 1
  br label %30

21:                                               ; preds = %14
  %22 = load ptr, ptr %6, align 8, !tbaa !44
  %23 = load ptr, ptr %7, align 8, !tbaa !46
  %24 = load ptr, ptr %8, align 8, !tbaa !8
  %25 = getelementptr inbounds ptr, ptr %24, i64 8
  %26 = load ptr, ptr %25, align 8
  %27 = call noundef zeroext i1 %26(ptr noundef nonnull align 8 dereferenceable(40) %8, ptr noundef nonnull align 8 dereferenceable(24) %22, ptr noundef %23)
  br i1 %27, label %29, label %28

28:                                               ; preds = %21
  store i1 false, ptr %4, align 1
  br label %30

29:                                               ; preds = %21
  store i1 true, ptr %4, align 1
  br label %30

30:                                               ; preds = %29, %28, %20
  %31 = load i1, ptr %4, align 1
  ret i1 %31
}