; Function Attrs: mustprogress uwtable
define noundef zeroext i1 @_ZN5draco26SequentialAttributeDecoder23DecodePortableAttributeERKSt6vectorINS_9IndexTypeIjNS_20PointIndex_tag_type_EEESaIS4_EEPNS_13DecoderBufferE(ptr noundef nonnull align 8 dereferenceable(40) %0, ptr noundef nonnull align 8 dereferenceable(24) %1, ptr noundef %2) unnamed_addr #5 align 2 {
  %4 = getelementptr inbounds nuw i8, ptr %0, i64 16
  %5 = load ptr, ptr %4, align 8, !tbaa !40
  %6 = getelementptr inbounds nuw i8, ptr %5, i64 24
  %7 = load i8, ptr %6, align 8, !tbaa !41
  %8 = icmp eq i8 %7, 0
  br i1 %8, label %23, label %9

9:                                                ; preds = %3
  %10 = getelementptr inbounds nuw i8, ptr %1, i64 8
  %11 = load ptr, ptr %10, align 8, !tbaa !49
  %12 = load ptr, ptr %1, align 8, !tbaa !52
  %13 = ptrtoint ptr %11 to i64
  %14 = ptrtoint ptr %12 to i64
  %15 = sub i64 %13, %14
  %16 = ashr exact i64 %15, 2
  %17 = tail call noundef zeroext i1 @_ZN5draco14PointAttribute5ResetEm(ptr noundef nonnull align 8 dereferenceable(112) %5, i64 noundef %16)
  br i1 %17, label %18, label %23

18:                                               ; preds = %9
  %19 = load ptr, ptr %0, align 8, !tbaa !3
  %20 = getelementptr inbounds nuw i8, ptr %19, i64 64
  %21 = load ptr, ptr %20, align 8
  %22 = tail call noundef zeroext i1 %21(ptr noundef nonnull align 8 dereferenceable(40) %0, ptr noundef nonnull align 8 dereferenceable(24) %1, ptr noundef %2)
  br label %23

23:                                               ; preds = %18, %3, %9
  %.0 = phi i1 [ false, %9 ], [ false, %3 ], [ %22, %18 ]
  ret i1 %.0
}